target datalayout = "e-m:e-p270:32:32-p271:32:32-p272:64:64-i64:64-i128:128-f80:128-n8:16:32:64-S128"
target triple = "x86_64-pc-linux-gnu"

%"class.std::basic_string_view" = type { i64, ptr }
%"struct.grpc_core::PosixTcpOptions" = type { i32, i32, i32, i32, i32, i32, i8, i32, i32, i32, i8, i8, %"class.grpc_core::RefCountedPtr", ptr }
%"class.grpc_core::RefCountedPtr" = type { ptr }

; Function Attrs: mustprogress uwtable
define noundef ptr @_Z23grpc_tcp_create_from_fdP7grpc_fdRKN17grpc_event_engine12experimental14EndpointConfigESt17basic_string_viewIcSt11char_traitsIcEE(ptr noundef %0, ptr noundef nonnull align 8 dereferenceable(8) %1, i64 %2, ptr %3) #4 personality ptr @__gxx_personality_v0 {
  %5 = alloca %"class.std::basic_string_view", align 8
  %6 = alloca ptr, align 8
  %7 = alloca ptr, align 8
  %8 = alloca %"struct.grpc_core::PosixTcpOptions", align 8
  %9 = alloca %"class.std::basic_string_view", align 8
  %10 = alloca ptr, align 8
  %11 = alloca i32, align 4
  %12 = getelementptr inbounds nuw { i64, ptr }, ptr %5, i32 0, i32 0
  store i64 %2, ptr %12, align 8
  %13 = getelementptr inbounds nuw { i64, ptr }, ptr %5, i32 0, i32 1
  store ptr %3, ptr %13, align 8
  store ptr %0, ptr %6, align 8, !tbaa !12
  store ptr %1, ptr %7, align 8, !tbaa !14
  %14 = load ptr, ptr %6, align 8, !tbaa !12
  call void @llvm.lifetime.start.p0(i64 64, ptr %8) #3
  %15 = load ptr, ptr %7, align 8, !tbaa !14
  call void @_Z28TcpOptionsFromEndpointConfigRKN17grpc_event_engine12experimental14EndpointConfigE(ptr dead_on_unwind writable sret(%"struct.grpc_core::PosixTcpOptions") align 8 %8, ptr noundef nonnull align 8 dereferenceable(8) %15)
  call void @llvm.memcpy.p0.p0.i64(ptr align 8 %9, ptr align 8 %5, i64 16, i1 false), !tbaa.struct !16
  %16 = getelementptr inbounds nuw { i64, ptr }, ptr %9, i32 0, i32 0
  %17 = load i64, ptr %16, align 8
  %18 = getelementptr inbounds nuw { i64, ptr }, ptr %9, i32 0, i32 1
  %19 = load ptr, ptr %18, align 8
  %20 = invoke noundef ptr @_Z15grpc_tcp_createP7grpc_fdRKN9grpc_core15PosixTcpOptionsESt17basic_string_viewIcSt11char_traitsIcEE(ptr noundef %14, ptr noundef nonnull align 8 dereferenceable(64) %8, i64 %17, ptr %19)
          to label %21 unwind label %22

21:                                               ; preds = %4
  call void @_ZN9grpc_core15PosixTcpOptionsD2Ev(ptr noundef nonnull align 8 dereferenceable(64) %8) #3
  call void @llvm.lifetime.end.p0(i64 64, ptr %8) #3
  ret ptr %20

22:                                               ; preds = %4
  %23 = landingpad { ptr, i32 }
          cleanup
  %24 = extractvalue { ptr, i32 } %23, 0
  store ptr %24, ptr %10, align 8
  %25 = extractvalue { ptr, i32 } %23, 1
  store i32 %25, ptr %11, align 4
  call void @_ZN9grpc_core15PosixTcpOptionsD2Ev(ptr noundef nonnull align 8 dereferenceable(64) %8) #3
  call void @llvm.lifetime.end.p0(i64 64, ptr %8) #3
  br label %26

26:                                               ; preds = %22
  %27 = load ptr, ptr %10, align 8
  %28 = load i32, ptr %11, align 4
  %29 = insertvalue { ptr, i32 } poison, ptr %27, 0
  %30 = insertvalue { ptr, i32 } %29, i32 %28, 1
  resume { ptr, i32 } %30
}