; Function Attrs: mustprogress uwtable
define noundef ptr @_Z23grpc_tcp_create_from_fdP7grpc_fdRKN17grpc_event_engine12experimental14EndpointConfigESt17basic_string_viewIcSt11char_traitsIcEE(ptr noundef %0, ptr noundef nonnull align 8 dereferenceable(8) %1, i64 %2, ptr %3) local_unnamed_addr #3 personality ptr @__gxx_personality_v0 {
  %5 = alloca %"struct.grpc_core::PosixTcpOptions", align 8
  call void @llvm.lifetime.start.p0(i64 64, ptr nonnull %5) #31
  call void @_Z28TcpOptionsFromEndpointConfigRKN17grpc_event_engine12experimental14EndpointConfigE(ptr dead_on_unwind nonnull writable sret(%"struct.grpc_core::PosixTcpOptions") align 8 %5, ptr noundef nonnull align 8 dereferenceable(8) %1)
  %6 = invoke noundef ptr @_Z15grpc_tcp_createP7grpc_fdRKN9grpc_core15PosixTcpOptionsESt17basic_string_viewIcSt11char_traitsIcEE(ptr noundef %0, ptr noundef nonnull align 8 dereferenceable(64) %5, i64 %2, ptr %3)
          to label %7 unwind label %25

7:                                                ; preds = %4
  %8 = getelementptr inbounds nuw i8, ptr %5, i64 56
  %9 = load ptr, ptr %8, align 8, !tbaa !15
  %.not.i = icmp eq ptr %9, null
  br i1 %.not.i, label %11, label %10

10:                                               ; preds = %7
  invoke void @_Z25grpc_socket_mutator_unrefP19grpc_socket_mutator(ptr noundef nonnull %9)
          to label %11 unwind label %22

11:                                               ; preds = %10, %7
  %12 = getelementptr inbounds nuw i8, ptr %5, i64 48
  %13 = load ptr, ptr %12, align 8, !tbaa !22
  %.not.i.i = icmp eq ptr %13, null
  br i1 %.not.i.i, label %_ZN9grpc_core15PosixTcpOptionsD2Ev.exit, label %14

14:                                               ; preds = %11
  %15 = getelementptr inbounds nuw i8, ptr %13, i64 8
  %16 = atomicrmw sub ptr %15, i64 1 acq_rel, align 8
  %17 = icmp eq i64 %16, 1
  br i1 %17, label %18, label %_ZN9grpc_core15PosixTcpOptionsD2Ev.exit, !prof !23

18:                                               ; preds = %14
  %19 = load ptr, ptr %13, align 8, !tbaa !24
  %20 = getelementptr inbounds nuw i8, ptr %19, i64 8
  %21 = load ptr, ptr %20, align 8
  call void %21(ptr noundef nonnull align 8 dereferenceable(40) %13) #31
  br label %_ZN9grpc_core15PosixTcpOptionsD2Ev.exit

22:                                               ; preds = %10
  %23 = landingpad { ptr, i32 }
          catch ptr null
  %24 = extractvalue { ptr, i32 } %23, 0
  call void @__clang_call_terminate(ptr %24) #32
  unreachable

_ZN9grpc_core15PosixTcpOptionsD2Ev.exit:          ; preds = %11, %14, %18
  call void @llvm.lifetime.end.p0(i64 64, ptr nonnull %5) #31
  ret ptr %6

25:                                               ; preds = %4
  %26 = landingpad { ptr, i32 }
          cleanup
  call void @_ZN9grpc_core15PosixTcpOptionsD2Ev(ptr noundef nonnull align 8 dereferenceable(64) %5) #31
  call void @llvm.lifetime.end.p0(i64 64, ptr nonnull %5) #31
  resume { ptr, i32 } %26
}